; Function Attrs: mustprogress nofree norecurse nosync nounwind willreturn memory(read, inaccessiblemem: none) uwtable
define hidden noundef i64 @_ZN6google8protobuf8internal10WireFormat33ComputeUnknownMessageSetItemsSizeERKNS0_15UnknownFieldSetE(ptr noundef nonnull readonly align 8 captures(none) dereferenceable(24) %0) local_unnamed_addr #7 align 2 personality ptr @__gxx_personality_v0 {
  %2 = getelementptr inbounds nuw i8, ptr %0, i64 8
  %3 = load ptr, ptr %2, align 8, !tbaa !31
  %4 = load ptr, ptr %0, align 8, !tbaa !34
  %5 = ptrtoint ptr %3 to i64
  %6 = ptrtoint ptr %4 to i64
  %7 = sub i64 %5, %6
  %8 = lshr exact i64 %7, 4
  %9 = trunc i64 %8 to i32
  %10 = icmp sgt i32 %9, 0
  br i1 %10, label %.lr.ph, label %._crit_edge

.lr.ph:                                           ; preds = %1
  %11 = load i64, ptr @_ZN6google8protobuf8internal14WireFormatLite23kMessageSetItemTagsSizeE, align 8
  %wide.trip.count = and i64 %8, 2147483647
  br label %12

._crit_edge:                                      ; preds = %43, %1
  %.0.lcssa = phi i64 [ 0, %1 ], [ %.1, %43 ]
  ret i64 %.0.lcssa

12:                                               ; preds = %.lr.ph, %43
  %indvars.iv = phi i64 [ 0, %.lr.ph ], [ %indvars.iv.next, %43 ]
  %.016 = phi i64 [ 0, %.lr.ph ], [ %.1, %43 ]
  %13 = getelementptr inbounds nuw %"class.google::protobuf::UnknownField", ptr %4, i64 %indvars.iv
  %14 = getelementptr inbounds nuw i8, ptr %13, i64 4
  %15 = load i32, ptr %14, align 4, !tbaa !38
  %16 = icmp eq i32 %15, 3
  br i1 %16, label %17, label %43

17:                                               ; preds = %12
  %18 = add i64 %11, %.016
  %19 = load i32, ptr %13, align 8, !tbaa !40
  %20 = or i32 %19, 1
  %21 = tail call range(i32 0, 33) i32 @llvm.ctlz.i32(i32 %20, i1 true)
  %22 = xor i32 %21, 31
  %23 = mul nuw nsw i32 %22, 9
  %24 = add nuw nsw i32 %23, 73
  %25 = lshr i32 %24, 6
  %26 = zext nneg i32 %25 to i64
  %27 = getelementptr inbounds nuw i8, ptr %13, i64 8
  %28 = load ptr, ptr %27, align 8, !tbaa !20
  %29 = getelementptr inbounds nuw i8, ptr %28, i64 8
  %30 = load i64, ptr %29, align 8, !tbaa !44
  %31 = trunc i64 %30 to i32
  %32 = or i32 %31, 1
  %33 = tail call range(i32 0, 33) i32 @llvm.ctlz.i32(i32 %32, i1 true)
  %34 = xor i32 %33, 31
  %35 = mul nuw nsw i32 %34, 9
  %36 = add nuw nsw i32 %35, 73
  %37 = lshr i32 %36, 6
  %38 = zext nneg i32 %37 to i64
  %sext = shl i64 %30, 32
  %39 = ashr exact i64 %sext, 32
  %40 = add i64 %18, %39
  %41 = add i64 %40, %26
  %42 = add i64 %41, %38
  br label %43

43:                                               ; preds = %17, %12
  %.1 = phi i64 [ %42, %17 ], [ %.016, %12 ]
  %indvars.iv.next = add nuw nsw i64 %indvars.iv, 1
  %exitcond.not = icmp eq i64 %indvars.iv.next, %wide.trip.count
  br i1 %exitcond.not, label %._crit_edge, label %12, !llvm.loop !52
}